target datalayout = "e-m:e-p270:32:32-p271:32:32-p272:64:64-i64:64-i128:128-f80:128-n8:16:32:64-S128"
target triple = "x86_64-pc-linux-gnu"

%class.btGeneric6DofConstraint = type <{ %class.btTypedConstraint, %class.btTransform, %class.btTransform, [3 x %class.btJacobianEntry], [3 x %class.btJacobianEntry], %class.btTranslationalLimitMotor, [3 x %class.btRotationalLimitMotor], float, %class.btTransform, %class.btTransform, %class.btVector3, [3 x %class.btVector3], %class.btVector3, float, float, i8, [3 x i8], %class.btVector3, i8, i8, [2 x i8], i32, i8, [3 x i8] }>
%class.btTypedConstraint = type { ptr, %struct.btTypedObject, i32, %union.anon.0, float, i8, i8, i32, ptr, ptr, float, float, ptr }
%struct.btTypedObject = type { i32 }
%union.anon.0 = type { ptr }
%class.btJacobianEntry = type { %class.btVector3, %class.btVector3, %class.btVector3, %class.btVector3, %class.btVector3, float }
%class.btTranslationalLimitMotor = type { %class.btVector3, %class.btVector3, %class.btVector3, float, float, float, %class.btVector3, %class.btVector3, %class.btVector3, [3 x i8], %class.btVector3, %class.btVector3, %class.btVector3, %class.btVector3, [3 x i32] }
%class.btRotationalLimitMotor = type { float, float, float, float, float, float, float, float, float, float, float, i8, float, float, i32, float }
%class.btTransform = type { %class.btMatrix3x3, %class.btVector3 }
%class.btMatrix3x3 = type { [3 x %class.btVector3] }
%class.btVector3 = type { [4 x float] }
%class.btCollisionObject = type <{ ptr, %class.btTransform, %class.btTransform, %class.btVector3, %class.btVector3, %class.btVector3, i32, float, ptr, ptr, ptr, ptr, i32, i32, i32, i32, i32, float, float, float, float, float, float, float, i32, [4 x i8], ptr, i32, i32, i32, float, float, float, i32, [4 x i8], %class.btAlignedObjectArray, i32, %class.btVector3, [4 x i8] }>
%class.btAlignedObjectArray = type <{ [4 x i8], i32, i32, [4 x i8], ptr, i8, [7 x i8] }>

; Function Attrs: mustprogress nounwind uwtable
define linkonce_odr dso_local noundef nonnull align 4 dereferenceable(64) ptr @_ZNK11btRigidBody24getCenterOfMassTransformEv(ptr noundef nonnull align 8 dereferenceable(744) %0) #1 comdat align 2 {
  %2 = alloca ptr, align 8
  store ptr %0, ptr %2, align 8, !tbaa !14
  %3 = load ptr, ptr %2, align 8
  %4 = getelementptr inbounds nuw %class.btCollisionObject, ptr %3, i32 0, i32 1
  ret ptr %4
}

; Function Attrs: inlinehint mustprogress nounwind uwtable
define linkonce_odr dso_local noundef nonnull align 4 dereferenceable(48) ptr @_ZN11btMatrix3x3aSERKS_(ptr noundef nonnull align 4 dereferenceable(48) %0, ptr noundef nonnull align 4 dereferenceable(48) %1) #5 comdat align 2 {
  %3 = alloca ptr, align 8
  %4 = alloca ptr, align 8
  store ptr %0, ptr %3, align 8, !tbaa !70
  store ptr %1, ptr %4, align 8, !tbaa !70
  %5 = load ptr, ptr %3, align 8
  %6 = load ptr, ptr %4, align 8, !tbaa !70
  %7 = getelementptr inbounds nuw %class.btMatrix3x3, ptr %6, i32 0, i32 0
  %8 = getelementptr inbounds [3 x %class.btVector3], ptr %7, i64 0, i64 0
  %9 = getelementptr inbounds nuw %class.btMatrix3x3, ptr %5, i32 0, i32 0
  %10 = getelementptr inbounds [3 x %class.btVector3], ptr %9, i64 0, i64 0
  call void @llvm.memcpy.p0.p0.i64(ptr align 4 %10, ptr align 4 %8, i64 16, i1 false), !tbaa.struct !37
  %11 = load ptr, ptr %4, align 8, !tbaa !70
  %12 = getelementptr inbounds nuw %class.btMatrix3x3, ptr %11, i32 0, i32 0
  %13 = getelementptr inbounds [3 x %class.btVector3], ptr %12, i64 0, i64 1
  %14 = getelementptr inbounds nuw %class.btMatrix3x3, ptr %5, i32 0, i32 0
  %15 = getelementptr inbounds [3 x %class.btVector3], ptr %14, i64 0, i64 1
  call void @llvm.memcpy.p0.p0.i64(ptr align 4 %15, ptr align 4 %13, i64 16, i1 false), !tbaa.struct !37
  %16 = load ptr, ptr %4, align 8, !tbaa !70
  %17 = getelementptr inbounds nuw %class.btMatrix3x3, ptr %16, i32 0, i32 0
  %18 = getelementptr inbounds [3 x %class.btVector3], ptr %17, i64 0, i64 2
  %19 = getelementptr inbounds nuw %class.btMatrix3x3, ptr %5, i32 0, i32 0
  %20 = getelementptr inbounds [3 x %class.btVector3], ptr %19, i64 0, i64 2
  call void @llvm.memcpy.p0.p0.i64(ptr align 4 %20, ptr align 4 %18, i64 16, i1 false), !tbaa.struct !37
  ret ptr %5
}

; Function Attrs: mustprogress uwtable
define dso_local void @_ZN23btGeneric6DofConstraint19calculateTransformsEv(ptr noundef nonnull align 8 dereferenceable(1333) %0) #2 align 2 {
  %2 = alloca ptr, align 8
  store ptr %0, ptr %2, align 8, !tbaa !12
  %3 = load ptr, ptr %2, align 8
  %4 = getelementptr inbounds nuw %class.btTypedConstraint, ptr %3, i32 0, i32 8
  %5 = load ptr, ptr %4, align 8, !tbaa !68
  %6 = call noundef nonnull align 4 dereferenceable(64) ptr @_ZNK11btRigidBody24getCenterOfMassTransformEv(ptr noundef nonnull align 8 dereferenceable(744) %5)
  %7 = getelementptr inbounds nuw %class.btTypedConstraint, ptr %3, i32 0, i32 9
  %8 = load ptr, ptr %7, align 8, !tbaa !69
  %9 = call noundef nonnull align 4 dereferenceable(64) ptr @_ZNK11btRigidBody24getCenterOfMassTransformEv(ptr noundef nonnull align 8 dereferenceable(744) %8)
  call void @_ZN23btGeneric6DofConstraint19calculateTransformsERK11btTransformS2_(ptr noundef nonnull align 8 dereferenceable(1333) %3, ptr noundef nonnull align 4 dereferenceable(64) %6, ptr noundef nonnull align 4 dereferenceable(64) %9)
  ret void
}

; Function Attrs: inlinehint mustprogress uwtable
define linkonce_odr dso_local noundef nonnull align 4 dereferenceable(64) ptr @_ZN11btTransformaSERKS_(ptr noundef nonnull align 4 dereferenceable(64) %0, ptr noundef nonnull align 4 dereferenceable(64) %1) #4 comdat align 2 {
  %3 = alloca ptr, align 8
  %4 = alloca ptr, align 8
  store ptr %0, ptr %3, align 8, !tbaa !16
  store ptr %1, ptr %4, align 8, !tbaa !16
  %5 = load ptr, ptr %3, align 8
  %6 = load ptr, ptr %4, align 8, !tbaa !16
  %7 = getelementptr inbounds nuw %class.btTransform, ptr %6, i32 0, i32 0
  %8 = getelementptr inbounds nuw %class.btTransform, ptr %5, i32 0, i32 0
  %9 = call noundef nonnull align 4 dereferenceable(48) ptr @_ZN11btMatrix3x3aSERKS_(ptr noundef nonnull align 4 dereferenceable(48) %8, ptr noundef nonnull align 4 dereferenceable(48) %7)
  %10 = load ptr, ptr %4, align 8, !tbaa !16
  %11 = getelementptr inbounds nuw %class.btTransform, ptr %10, i32 0, i32 1
  %12 = getelementptr inbounds nuw %class.btTransform, ptr %5, i32 0, i32 1
  call void @llvm.memcpy.p0.p0.i64(ptr align 4 %12, ptr align 4 %11, i64 16, i1 false), !tbaa.struct !37
  ret ptr %5
}

; Function Attrs: mustprogress uwtable
define dso_local void @_ZN23btGeneric6DofConstraint9setFramesERK11btTransformS2_(ptr noundef nonnull align 8 dereferenceable(1333) %0, ptr noundef nonnull align 4 dereferenceable(64) %1, ptr noundef nonnull align 4 dereferenceable(64) %2) #2 align 2 {
  %4 = alloca ptr, align 8
  %5 = alloca ptr, align 8
  %6 = alloca ptr, align 8
  store ptr %0, ptr %4, align 8, !tbaa !12
  store ptr %1, ptr %5, align 8, !tbaa !16
  store ptr %2, ptr %6, align 8, !tbaa !16
  %7 = load ptr, ptr %4, align 8
  %8 = load ptr, ptr %5, align 8, !tbaa !16
  %9 = getelementptr inbounds nuw %class.btGeneric6DofConstraint, ptr %7, i32 0, i32 1
  %10 = call noundef nonnull align 4 dereferenceable(64) ptr @_ZN11btTransformaSERKS_(ptr noundef nonnull align 4 dereferenceable(64) %9, ptr noundef nonnull align 4 dereferenceable(64) %8)
  %11 = load ptr, ptr %6, align 8, !tbaa !16
  %12 = getelementptr inbounds nuw %class.btGeneric6DofConstraint, ptr %7, i32 0, i32 2
  %13 = call noundef nonnull align 4 dereferenceable(64) ptr @_ZN11btTransformaSERKS_(ptr noundef nonnull align 4 dereferenceable(64) %12, ptr noundef nonnull align 4 dereferenceable(64) %11)
  %14 = load ptr, ptr %7, align 8, !tbaa !20
  %15 = getelementptr inbounds ptr, ptr %14, i64 2
  %16 = load ptr, ptr %15, align 8
  call void %16(ptr noundef nonnull align 8 dereferenceable(1333) %7)
  call void @_ZN23btGeneric6DofConstraint19calculateTransformsEv(ptr noundef nonnull align 8 dereferenceable(1333) %7)
  ret void
}